target datalayout = "e-m:e-p270:32:32-p271:32:32-p272:64:64-i64:64-i128:128-f80:128-n8:16:32:64-S128"
target triple = "x86_64-unknown-linux-gnu"

%"class.proof_checker::hyp_decl_plugin" = type { %class.decl_plugin.base, ptr, ptr, ptr, ptr }
%class.decl_plugin.base = type <{ ptr, ptr, i32 }>
%class.decl_plugin = type <{ ptr, ptr, i32, [4 x i8] }>

@_ZTV11decl_plugin = external unnamed_addr constant { [23 x ptr] }, align 8

; Function Attrs: mustprogress nounwind uwtable
define linkonce_odr hidden void @_ZN11decl_pluginC2Ev(ptr noundef nonnull align 8 dereferenceable(20) %this) unnamed_addr #4 comdat align 2 {
entry:
  %this.addr = alloca ptr, align 8
  store ptr %this, ptr %this.addr, align 8
  %this1 = load ptr, ptr %this.addr, align 8
  store ptr getelementptr inbounds ({ [23 x ptr] }, ptr @_ZTV11decl_plugin, i32 0, i32 0, i32 2), ptr %this1, align 8
  %m_manager = getelementptr inbounds %class.decl_plugin, ptr %this1, i32 0, i32 1
  store ptr null, ptr %m_manager, align 8
  %m_family_id = getelementptr inbounds %class.decl_plugin, ptr %this1, i32 0, i32 2
  store i32 -1, ptr %m_family_id, align 8
  ret void
}

; Function Attrs: mustprogress nounwind uwtable
define hidden void @_ZN13proof_checker15hyp_decl_pluginC2Ev(ptr noundef nonnull align 8 dereferenceable(56) %this) unnamed_addr #4 align 2 {
entry:
  %this.addr = alloca ptr, align 8
  store ptr %this, ptr %this.addr, align 8
  %this1 = load ptr, ptr %this.addr, align 8
  call void @_ZN11decl_pluginC2Ev(ptr noundef nonnull align 8 dereferenceable(20) %this1) #3
  store ptr getelementptr inbounds ({ [23 x ptr] }, ptr @_ZTVN13proof_checker15hyp_decl_pluginE, i32 0, i32 0, i32 2), ptr %this1, align 8
  %m_cons = getelementptr inbounds %"class.proof_checker::hyp_decl_plugin", ptr %this1, i32 0, i32 1
  store ptr null, ptr %m_cons, align 8
  %m_atom = getelementptr inbounds %"class.proof_checker::hyp_decl_plugin", ptr %this1, i32 0, i32 2
  store ptr null, ptr %m_atom, align 8
  %m_nil = getelementptr inbounds %"class.proof_checker::hyp_decl_plugin", ptr %this1, i32 0, i32 3
  store ptr null, ptr %m_nil, align 8
  %m_cell = getelementptr inbounds %"class.proof_checker::hyp_decl_plugin", ptr %this1, i32 0, i32 4
  store ptr null, ptr %m_cell, align 8
  ret void
}