; Function Attrs: mustprogress nofree norecurse nosync nounwind willreturn memory(argmem: write) uwtable
define hidden void @_ZN13proof_checker15hyp_decl_pluginC2Ev(ptr nocapture noundef nonnull writeonly align 8 dereferenceable(56) %this) unnamed_addr #3 align 2 {
entry:
  %m_manager.i = getelementptr inbounds i8, ptr %this, i64 8
  store ptr null, ptr %m_manager.i, align 8
  %m_family_id.i = getelementptr inbounds i8, ptr %this, i64 16
  store i32 -1, ptr %m_family_id.i, align 8
  store ptr getelementptr inbounds ({ [23 x ptr] }, ptr @_ZTVN13proof_checker15hyp_decl_pluginE, i64 0, i32 0, i64 2), ptr %this, align 8
  %m_cons = getelementptr inbounds i8, ptr %this, i64 24
  tail call void @llvm.memset.p0.i64(ptr noundef nonnull align 8 dereferenceable(32) %m_cons, i8 0, i64 32, i1 false)
  ret void
}